target datalayout = "e-m:e-p270:32:32-p271:32:32-p272:64:64-i64:64-i128:128-f80:128-n8:16:32:64-S128"
target triple = "x86_64-pc-linux-gnu"

%"struct.faiss::InvertedLists" = type <{ ptr, i64, i64, i8, [7 x i8] }>
%"struct.faiss::ArrayInvertedLists" = type { %"struct.faiss::InvertedLists.base", %"class.std::vector.10", %"class.std::vector.15" }
%"struct.faiss::InvertedLists.base" = type <{ ptr, i64, i64, i8 }>
%"class.std::vector.10" = type { %"struct.std::_Vector_base.11" }
%"struct.std::_Vector_base.11" = type { %"struct.std::_Vector_base<std::vector<unsigned char>, std::allocator<std::vector<unsigned char>>>::_Vector_impl" }
%"struct.std::_Vector_base<std::vector<unsigned char>, std::allocator<std::vector<unsigned char>>>::_Vector_impl" = type { %"struct.std::_Vector_base<std::vector<unsigned char>, std::allocator<std::vector<unsigned char>>>::_Vector_impl_data" }
%"struct.std::_Vector_base<std::vector<unsigned char>, std::allocator<std::vector<unsigned char>>>::_Vector_impl_data" = type { ptr, ptr, ptr }
%"class.std::vector.15" = type { %"struct.std::_Vector_base.16" }
%"struct.std::_Vector_base.16" = type { %"struct.std::_Vector_base<std::vector<long>, std::allocator<std::vector<long>>>::_Vector_impl" }
%"struct.std::_Vector_base<std::vector<long>, std::allocator<std::vector<long>>>::_Vector_impl" = type { %"struct.std::_Vector_base<std::vector<long>, std::allocator<std::vector<long>>>::_Vector_impl_data" }
%"struct.std::_Vector_base<std::vector<long>, std::allocator<std::vector<long>>>::_Vector_impl_data" = type { ptr, ptr, ptr }
%"class.std::vector" = type { %"struct.std::_Vector_base" }
%"struct.std::_Vector_base" = type { %"struct.std::_Vector_base<long, std::allocator<long>>::_Vector_impl" }
%"struct.std::_Vector_base<long, std::allocator<long>>::_Vector_impl" = type { %"struct.std::_Vector_base<long, std::allocator<long>>::_Vector_impl_data" }
%"struct.std::_Vector_base<long, std::allocator<long>>::_Vector_impl_data" = type { ptr, ptr, ptr }
%"class.std::vector.20" = type { %"struct.std::_Vector_base.21" }
%"struct.std::_Vector_base.21" = type { %"struct.std::_Vector_base<unsigned char, std::allocator<unsigned char>>::_Vector_impl" }
%"struct.std::_Vector_base<unsigned char, std::allocator<unsigned char>>::_Vector_impl" = type { %"struct.std::_Vector_base<unsigned char, std::allocator<unsigned char>>::_Vector_impl_data" }
%"struct.std::_Vector_base<unsigned char, std::allocator<unsigned char>>::_Vector_impl_data" = type { ptr, ptr, ptr }

; Function Attrs: mustprogress nounwind uwtable
define linkonce_odr noundef nonnull align 1 dereferenceable(1) ptr @_ZNSt6vectorIhSaIhEEixEm(ptr noundef nonnull align 8 dereferenceable(24) %0, i64 noundef %1) #1 comdat align 2 {
  %3 = alloca ptr, align 8
  %4 = alloca i64, align 8
  store ptr %0, ptr %3, align 8, !tbaa !219
  store i64 %1, ptr %4, align 8, !tbaa !11
  %5 = load ptr, ptr %3, align 8
  %6 = getelementptr inbounds nuw %"struct.std::_Vector_base.21", ptr %5, i32 0, i32 0
  %7 = getelementptr inbounds nuw %"struct.std::_Vector_base<unsigned char, std::allocator<unsigned char>>::_Vector_impl_data", ptr %6, i32 0, i32 0
  %8 = load ptr, ptr %7, align 8, !tbaa !232
  %9 = load i64, ptr %4, align 8, !tbaa !11
  %10 = getelementptr inbounds nuw i8, ptr %8, i64 %9
  ret ptr %10
}

; Function Attrs: mustprogress nounwind uwtable
define linkonce_odr noundef nonnull align 8 dereferenceable(24) ptr @_ZNSt6vectorIS_IhSaIhEESaIS1_EEixEm(ptr noundef nonnull align 8 dereferenceable(24) %0, i64 noundef %1) #1 comdat align 2 {
  %3 = alloca ptr, align 8
  %4 = alloca i64, align 8
  store ptr %0, ptr %3, align 8, !tbaa !187
  store i64 %1, ptr %4, align 8, !tbaa !11
  %5 = load ptr, ptr %3, align 8
  %6 = getelementptr inbounds nuw %"struct.std::_Vector_base.11", ptr %5, i32 0, i32 0
  %7 = getelementptr inbounds nuw %"struct.std::_Vector_base<std::vector<unsigned char>, std::allocator<std::vector<unsigned char>>>::_Vector_impl_data", ptr %6, i32 0, i32 0
  %8 = load ptr, ptr %7, align 8, !tbaa !193
  %9 = load i64, ptr %4, align 8, !tbaa !11
  %10 = getelementptr inbounds nuw %"class.std::vector.20", ptr %8, i64 %9
  ret ptr %10
}

; Function Attrs: mustprogress nounwind uwtable
define linkonce_odr noundef nonnull align 8 dereferenceable(8) ptr @_ZNSt6vectorIlSaIlEEixEm(ptr noundef nonnull align 8 dereferenceable(24) %0, i64 noundef %1) #1 comdat align 2 {
  %3 = alloca ptr, align 8
  %4 = alloca i64, align 8
  store ptr %0, ptr %3, align 8, !tbaa !86
  store i64 %1, ptr %4, align 8, !tbaa !11
  %5 = load ptr, ptr %3, align 8
  %6 = getelementptr inbounds nuw %"struct.std::_Vector_base", ptr %5, i32 0, i32 0
  %7 = getelementptr inbounds nuw %"struct.std::_Vector_base<long, std::allocator<long>>::_Vector_impl_data", ptr %6, i32 0, i32 0
  %8 = load ptr, ptr %7, align 8, !tbaa !90
  %9 = load i64, ptr %4, align 8, !tbaa !11
  %10 = getelementptr inbounds nuw i64, ptr %8, i64 %9
  ret ptr %10
}

; Function Attrs: mustprogress nounwind uwtable
define linkonce_odr noundef nonnull align 8 dereferenceable(24) ptr @_ZNSt6vectorIS_IlSaIlEESaIS1_EEixEm(ptr noundef nonnull align 8 dereferenceable(24) %0, i64 noundef %1) #1 comdat align 2 {
  %3 = alloca ptr, align 8
  %4 = alloca i64, align 8
  store ptr %0, ptr %3, align 8, !tbaa !189
  store i64 %1, ptr %4, align 8, !tbaa !11
  %5 = load ptr, ptr %3, align 8
  %6 = getelementptr inbounds nuw %"struct.std::_Vector_base.16", ptr %5, i32 0, i32 0
  %7 = getelementptr inbounds nuw %"struct.std::_Vector_base<std::vector<long>, std::allocator<std::vector<long>>>::_Vector_impl_data", ptr %6, i32 0, i32 0
  %8 = load ptr, ptr %7, align 8, !tbaa !191
  %9 = load i64, ptr %4, align 8, !tbaa !11
  %10 = getelementptr inbounds nuw %"class.std::vector", ptr %8, i64 %9
  ret ptr %10
}

; Function Attrs: mustprogress nounwind uwtable
define void @_ZN5faiss18ArrayInvertedLists14update_entriesEmmmPKlPKh(ptr noundef nonnull align 8 dereferenceable(80) %0, i64 noundef %1, i64 noundef %2, i64 noundef %3, ptr noundef %4, ptr noundef %5) unnamed_addr #1 align 2 {
  %7 = alloca ptr, align 8
  %8 = alloca i64, align 8
  %9 = alloca i64, align 8
  %10 = alloca i64, align 8
  %11 = alloca ptr, align 8
  %12 = alloca ptr, align 8
  store ptr %0, ptr %7, align 8, !tbaa !33
  store i64 %1, ptr %8, align 8, !tbaa !11
  store i64 %2, ptr %9, align 8, !tbaa !11
  store i64 %3, ptr %10, align 8, !tbaa !11
  store ptr %4, ptr %11, align 8, !tbaa !15
  store ptr %5, ptr %12, align 8, !tbaa !13
  %13 = load ptr, ptr %7, align 8
  %14 = getelementptr inbounds nuw %"struct.faiss::ArrayInvertedLists", ptr %13, i32 0, i32 2
  %15 = load i64, ptr %8, align 8, !tbaa !11
  %16 = call noundef nonnull align 8 dereferenceable(24) ptr @_ZNSt6vectorIS_IlSaIlEESaIS1_EEixEm(ptr noundef nonnull align 8 dereferenceable(24) %14, i64 noundef %15) #6
  %17 = load i64, ptr %9, align 8, !tbaa !11
  %18 = call noundef nonnull align 8 dereferenceable(8) ptr @_ZNSt6vectorIlSaIlEEixEm(ptr noundef nonnull align 8 dereferenceable(24) %16, i64 noundef %17) #6
  %19 = load ptr, ptr %11, align 8, !tbaa !15
  %20 = load i64, ptr %10, align 8, !tbaa !11
  %21 = mul i64 8, %20
  call void @llvm.memcpy.p0.p0.i64(ptr align 8 %18, ptr align 8 %19, i64 %21, i1 false)
  %22 = getelementptr inbounds nuw %"struct.faiss::ArrayInvertedLists", ptr %13, i32 0, i32 1
  %23 = load i64, ptr %8, align 8, !tbaa !11
  %24 = call noundef nonnull align 8 dereferenceable(24) ptr @_ZNSt6vectorIS_IhSaIhEESaIS1_EEixEm(ptr noundef nonnull align 8 dereferenceable(24) %22, i64 noundef %23) #6
  %25 = load i64, ptr %9, align 8, !tbaa !11
  %26 = getelementptr inbounds nuw %"struct.faiss::InvertedLists", ptr %13, i32 0, i32 2
  %27 = load i64, ptr %26, align 8, !tbaa !19
  %28 = mul i64 %25, %27
  %29 = call noundef nonnull align 1 dereferenceable(1) ptr @_ZNSt6vectorIhSaIhEEixEm(ptr noundef nonnull align 8 dereferenceable(24) %24, i64 noundef %28) #6
  %30 = load ptr, ptr %12, align 8, !tbaa !13
  %31 = getelementptr inbounds nuw %"struct.faiss::InvertedLists", ptr %13, i32 0, i32 2
  %32 = load i64, ptr %31, align 8, !tbaa !19
  %33 = load i64, ptr %10, align 8, !tbaa !11
  %34 = mul i64 %32, %33
  call void @llvm.memcpy.p0.p0.i64(ptr align 1 %29, ptr align 1 %30, i64 %34, i1 false)
  ret void
}