; Function Attrs: mustprogress nofree norecurse nosync nounwind willreturn memory(readwrite, inaccessiblemem: none) uwtable
define void @_ZN5faiss18ArrayInvertedLists14update_entriesEmmmPKlPKh(ptr noundef nonnull readonly align 8 captures(none) dereferenceable(80) %0, i64 noundef %1, i64 noundef %2, i64 noundef %3, ptr noundef readonly captures(none) %4, ptr noundef readonly captures(none) %5) unnamed_addr #7 align 2 {
  %7 = getelementptr inbounds nuw i8, ptr %0, i64 56
  %8 = load ptr, ptr %7, align 8, !tbaa !42
  %9 = getelementptr inbounds nuw %"class.std::vector", ptr %8, i64 %1
  %10 = load ptr, ptr %9, align 8, !tbaa !47
  %11 = getelementptr inbounds nuw i64, ptr %10, i64 %2
  %12 = shl i64 %3, 3
  tail call void @llvm.memcpy.p0.p0.i64(ptr nonnull align 8 %11, ptr align 8 %4, i64 %12, i1 false)
  %13 = getelementptr inbounds nuw i8, ptr %0, i64 32
  %14 = load ptr, ptr %13, align 8, !tbaa !48
  %15 = getelementptr inbounds nuw %"class.std::vector.20", ptr %14, i64 %1
  %16 = getelementptr inbounds nuw i8, ptr %0, i64 16
  %17 = load i64, ptr %16, align 8, !tbaa !10
  %18 = mul i64 %17, %2
  %19 = load ptr, ptr %15, align 8, !tbaa !51
  %20 = getelementptr inbounds nuw i8, ptr %19, i64 %18
  %21 = mul i64 %17, %3
  tail call void @llvm.memcpy.p0.p0.i64(ptr nonnull align 1 %20, ptr align 1 %5, i64 %21, i1 false)
  ret void
}